; Function Attrs: mustprogress uwtable
define void @_ZN5arrow11TypeVisitor5VisitERKNS_10UInt16TypeE(ptr dead_on_unwind noalias writable sret(%"class.arrow::Status") align 8 %0, ptr nonnull readnone align 8 captures(none) %1, ptr noundef nonnull align 8 dereferenceable(72) %2) unnamed_addr #1 align 2 personality ptr @__gxx_personality_v0 {
  %4 = alloca %"class.std::__cxx11::basic_string", align 8
  call void @llvm.lifetime.start.p0(i64 32, ptr nonnull %4) #8
  %5 = load ptr, ptr %2, align 8, !tbaa !41
  %6 = getelementptr inbounds nuw i8, ptr %5, i64 32
  %7 = load ptr, ptr %6, align 8
  call void %7(ptr dead_on_unwind nonnull writable sret(%"class.std::__cxx11::basic_string") align 8 %4, ptr noundef nonnull align 8 dereferenceable(72) %2, i1 noundef zeroext false)
  invoke void @_ZN5arrow6Status8FromArgsIJNSt7__cxx1112basic_stringIcSt11char_traitsIcESaIcEEEEEES0_NS_10StatusCodeEDpOT_(ptr dead_on_unwind writable sret(%"class.arrow::Status") align 8 %0, i8 noundef signext 10, ptr noundef nonnull align 8 dereferenceable(32) %4)
          to label %_ZN5arrow6Status14NotImplementedIJNSt7__cxx1112basic_stringIcSt11char_traitsIcESaIcEEEEEES0_DpOT_.exit unwind label %16

_ZN5arrow6Status14NotImplementedIJNSt7__cxx1112basic_stringIcSt11char_traitsIcESaIcEEEEEES0_DpOT_.exit: ; preds = %3
  %8 = load ptr, ptr %4, align 8, !tbaa !43
  %9 = getelementptr inbounds nuw i8, ptr %4, i64 16
  %10 = icmp eq ptr %8, %9
  br i1 %10, label %_ZNKSt7__cxx1112basic_stringIcSt11char_traitsIcESaIcEE11_M_is_localEv.exit.thread.i.i, label %_ZNKSt7__cxx1112basic_stringIcSt11char_traitsIcESaIcEE11_M_is_localEv.exit.i.i

_ZNKSt7__cxx1112basic_stringIcSt11char_traitsIcESaIcEE11_M_is_localEv.exit.thread.i.i: ; preds = %_ZN5arrow6Status14NotImplementedIJNSt7__cxx1112basic_stringIcSt11char_traitsIcESaIcEEEEEES0_DpOT_.exit
  %11 = getelementptr inbounds nuw i8, ptr %4, i64 8
  %12 = load i64, ptr %11, align 8, !tbaa !47
  %13 = icmp ult i64 %12, 16
  call void @llvm.assume(i1 %13)
  br label %_ZNSt7__cxx1112basic_stringIcSt11char_traitsIcESaIcEED2Ev.exit

_ZNKSt7__cxx1112basic_stringIcSt11char_traitsIcESaIcEE11_M_is_localEv.exit.i.i: ; preds = %_ZN5arrow6Status14NotImplementedIJNSt7__cxx1112basic_stringIcSt11char_traitsIcESaIcEEEEEES0_DpOT_.exit
  %14 = load i64, ptr %9, align 8, !tbaa !48
  %15 = add i64 %14, 1
  call void @_ZdlPvm(ptr noundef %8, i64 noundef %15) #9
  br label %_ZNSt7__cxx1112basic_stringIcSt11char_traitsIcESaIcEED2Ev.exit

_ZNSt7__cxx1112basic_stringIcSt11char_traitsIcESaIcEED2Ev.exit: ; preds = %_ZNKSt7__cxx1112basic_stringIcSt11char_traitsIcESaIcEE11_M_is_localEv.exit.thread.i.i, %_ZNKSt7__cxx1112basic_stringIcSt11char_traitsIcESaIcEE11_M_is_localEv.exit.i.i
  call void @llvm.lifetime.end.p0(i64 32, ptr nonnull %4) #8
  ret void

16:                                               ; preds = %3
  %17 = landingpad { ptr, i32 }
          cleanup
  %18 = load ptr, ptr %4, align 8, !tbaa !43
  %19 = getelementptr inbounds nuw i8, ptr %4, i64 16
  %20 = icmp eq ptr %18, %19
  br i1 %20, label %_ZNKSt7__cxx1112basic_stringIcSt11char_traitsIcESaIcEE11_M_is_localEv.exit.thread.i.i3, label %_ZNKSt7__cxx1112basic_stringIcSt11char_traitsIcESaIcEE11_M_is_localEv.exit.i.i2

_ZNKSt7__cxx1112basic_stringIcSt11char_traitsIcESaIcEE11_M_is_localEv.exit.thread.i.i3: ; preds = %16
  %21 = getelementptr inbounds nuw i8, ptr %4, i64 8
  %22 = load i64, ptr %21, align 8, !tbaa !47
  %23 = icmp ult i64 %22, 16
  call void @llvm.assume(i1 %23)
  br label %_ZNSt7__cxx1112basic_stringIcSt11char_traitsIcESaIcEED2Ev.exit4

_ZNKSt7__cxx1112basic_stringIcSt11char_traitsIcESaIcEE11_M_is_localEv.exit.i.i2: ; preds = %16
  %24 = load i64, ptr %19, align 8, !tbaa !48
  %25 = add i64 %24, 1
  call void @_ZdlPvm(ptr noundef %18, i64 noundef %25) #9
  br label %_ZNSt7__cxx1112basic_stringIcSt11char_traitsIcESaIcEED2Ev.exit4

_ZNSt7__cxx1112basic_stringIcSt11char_traitsIcESaIcEED2Ev.exit4: ; preds = %_ZNKSt7__cxx1112basic_stringIcSt11char_traitsIcESaIcEE11_M_is_localEv.exit.thread.i.i3, %_ZNKSt7__cxx1112basic_stringIcSt11char_traitsIcESaIcEE11_M_is_localEv.exit.i.i2
  call void @llvm.lifetime.end.p0(i64 32, ptr nonnull %4) #8
  resume { ptr, i32 } %17
}